; Function Attrs: nounwind uwtable
define internal fastcc ptr @GetSDOps(ptr noundef %0, ptr noundef %1, i8 noundef zeroext %2) unnamed_addr #0 {
  %4 = icmp eq ptr %1, null
  br i1 %4, label %5, label %6

5:                                                ; preds = %3
  tail call void @JNU_ThrowNullPointerException(ptr noundef %0, ptr noundef nonnull @.str.9) #7
  br label %43

6:                                                ; preds = %3
  %7 = load ptr, ptr %0, align 8
  %8 = getelementptr inbounds i8, ptr %7, i64 808
  %9 = load ptr, ptr %8, align 8
  %10 = load ptr, ptr @pDataID, align 8
  %11 = tail call i64 %9(ptr noundef nonnull %0, ptr noundef nonnull %1, ptr noundef %10) #7
  %12 = inttoptr i64 %11 to ptr
  %13 = icmp eq i64 %11, 0
  br i1 %13, label %14, label %38

14:                                               ; preds = %6
  %15 = load ptr, ptr %0, align 8
  %16 = getelementptr inbounds i8, ptr %15, i64 120
  %17 = load ptr, ptr %16, align 8
  %18 = tail call ptr %17(ptr noundef nonnull %0) #7
  %.not26 = icmp eq ptr %18, null
  br i1 %.not26, label %19, label %43

19:                                               ; preds = %14
  %20 = load ptr, ptr %0, align 8
  %21 = getelementptr inbounds i8, ptr %20, i64 256
  %22 = load ptr, ptr %21, align 8
  %23 = load ptr, ptr @pNullSurfaceDataClass, align 8
  %24 = tail call zeroext i8 %22(ptr noundef nonnull %0, ptr noundef nonnull %1, ptr noundef %23) #7
  %.not27 = icmp eq i8 %24, 0
  br i1 %.not27, label %25, label %43

25:                                               ; preds = %19
  %26 = load ptr, ptr %0, align 8
  %27 = getelementptr inbounds i8, ptr %26, i64 768
  %28 = load ptr, ptr %27, align 8
  %29 = load ptr, ptr @validID, align 8
  %30 = tail call zeroext i8 %28(ptr noundef nonnull %0, ptr noundef nonnull %1, ptr noundef %29) #7
  %.not28 = icmp eq i8 %30, 0
  br i1 %.not28, label %31, label %37

31:                                               ; preds = %25
  %32 = load ptr, ptr %0, align 8
  %33 = getelementptr inbounds i8, ptr %32, i64 112
  %34 = load ptr, ptr %33, align 8
  %35 = load ptr, ptr @pInvalidPipeClass, align 8
  %36 = tail call i32 %34(ptr noundef nonnull %0, ptr noundef %35, ptr noundef nonnull @.str.10) #7
  br label %43

37:                                               ; preds = %25
  tail call void @JNU_ThrowNullPointerException(ptr noundef nonnull %0, ptr noundef nonnull @.str.11) #7
  br label %43

38:                                               ; preds = %6
  %.not = icmp eq i8 %2, 0
  br i1 %.not, label %43, label %39

39:                                               ; preds = %38
  %40 = getelementptr inbounds i8, ptr %12, i64 32
  %41 = load ptr, ptr %40, align 8
  %.not25 = icmp eq ptr %41, null
  br i1 %.not25, label %43, label %42

42:                                               ; preds = %39
  tail call void %41(ptr noundef nonnull %0, ptr noundef nonnull %12) #7
  br label %43

43:                                               ; preds = %31, %37, %19, %14, %42, %39, %38, %5
  %.0 = phi ptr [ null, %5 ], [ %12, %38 ], [ %12, %39 ], [ %12, %42 ], [ %12, %14 ], [ %12, %19 ], [ %12, %37 ], [ %12, %31 ]
  ret ptr %.0
}